target datalayout = "e-m:e-p270:32:32-p271:32:32-p272:64:64-i64:64-i128:128-f80:128-n8:16:32:64-S128"
target triple = "x86_64-pc-linux-gnu"

%struct._value_string_ext = type { ptr, i32, i32, ptr, ptr }
%struct._wsp_stats_t = type { ptr, ptr, i32, ptr }
%struct._value_string = type { i32, ptr }
%struct._wsp_status_code_t = type { ptr, i32 }
%struct._wsp_pdu_t = type { ptr, i32 }
%struct._GString = type { ptr, i64, i64 }

@.str.2 = private unnamed_addr constant [10 x i8] c"wsp,stat,\00", align 1
@wsp_vals_status_ext = external global %struct._value_string_ext, align 8
@wsp_vals_pdu_type_ext = external global %struct._value_string_ext, align 8
@.str.3 = private unnamed_addr constant [4 x i8] c"wsp\00", align 1
@.str.4 = private unnamed_addr constant [35 x i8] c"Couldn't register wsp,stat tap: %s\00", align 1

; Function Attrs: nounwind null_pointer_is_valid sspstrong uwtable
define internal i32 @index2pdut(i32 noundef %0) #8 {
  %2 = alloca i32, align 4
  %3 = alloca i32, align 4
  store i32 %0, ptr %3, align 4
  %4 = load i32, ptr %3, align 4
  %5 = icmp sle i32 %4, 9
  br i1 %5, label %6, label %8

6:                                                ; preds = %1
  %7 = load i32, ptr %3, align 4
  store i32 %7, ptr %2, align 4
  br label %21

8:                                                ; preds = %1
  %9 = load i32, ptr %3, align 4
  %10 = icmp sle i32 %9, 14
  br i1 %10, label %11, label %14

11:                                               ; preds = %8
  %12 = load i32, ptr %3, align 4
  %13 = add i32 %12, 54
  store i32 %13, ptr %2, align 4
  br label %21

14:                                               ; preds = %8
  %15 = load i32, ptr %3, align 4
  %16 = icmp sle i32 %15, 16
  br i1 %16, label %17, label %20

17:                                               ; preds = %14
  %18 = load i32, ptr %3, align 4
  %19 = add i32 %18, 81
  store i32 %19, ptr %2, align 4
  br label %21

20:                                               ; preds = %14
  store i32 0, ptr %2, align 4
  br label %21

21:                                               ; preds = %20, %17, %11, %6
  %22 = load i32, ptr %2, align 4
  ret i32 %22
}

; Function Attrs: null_pointer_is_valid sspstrong uwtable
define internal void @wspstat_init(ptr noundef %0, ptr noundef %1) #0 {
  %3 = alloca ptr, align 8
  %4 = alloca ptr, align 8
  %5 = alloca ptr, align 8
  %6 = alloca ptr, align 8
  %7 = alloca i32, align 4
  %8 = alloca ptr, align 8
  %9 = alloca ptr, align 8
  %10 = alloca ptr, align 8
  %11 = alloca i64, align 8
  %12 = alloca i64, align 8
  %13 = alloca ptr, align 8
  %14 = alloca ptr, align 8
  %15 = alloca ptr, align 8
  %16 = alloca i64, align 8
  %17 = alloca i64, align 8
  %18 = alloca ptr, align 8
  %19 = alloca ptr, align 8
  %20 = alloca i64, align 8
  %21 = alloca i64, align 8
  %22 = alloca ptr, align 8
  %23 = alloca ptr, align 8
  %24 = alloca i64, align 8
  %25 = alloca i64, align 8
  %26 = alloca ptr, align 8
  %27 = alloca ptr, align 8
  store ptr %0, ptr %3, align 8
  store ptr %1, ptr %4, align 8
  call void @llvm.lifetime.start.p0(i64 8, ptr %5) #10
  call void @llvm.lifetime.start.p0(i64 8, ptr %6) #10
  store ptr null, ptr %6, align 8
  call void @llvm.lifetime.start.p0(i64 4, ptr %7) #10
  call void @llvm.lifetime.start.p0(i64 8, ptr %8) #10
  call void @llvm.lifetime.start.p0(i64 8, ptr %9) #10
  call void @llvm.lifetime.start.p0(i64 8, ptr %10) #10
  %28 = load ptr, ptr %3, align 8
  %29 = call i32 @strncmp(ptr noundef %28, ptr noundef @.str.2, i64 noundef 9) #11
  %30 = icmp ne i32 %29, 0
  br i1 %30, label %34, label %31

31:                                               ; preds = %2
  %32 = load ptr, ptr %3, align 8
  %33 = getelementptr i8, ptr %32, i64 9
  store ptr %33, ptr %6, align 8
  br label %35

34:                                               ; preds = %2
  store ptr null, ptr %6, align 8
  br label %35

35:                                               ; preds = %34, %31
  call void @llvm.lifetime.start.p0(i64 8, ptr %11) #10
  store i64 1, ptr %11, align 8
  call void @llvm.lifetime.start.p0(i64 8, ptr %12) #10
  store i64 32, ptr %12, align 8
  call void @llvm.lifetime.start.p0(i64 8, ptr %13) #10
  %36 = load i64, ptr %12, align 8
  %37 = icmp eq i64 %36, 1
  br i1 %37, label %38, label %41

38:                                               ; preds = %35
  %39 = load i64, ptr %11, align 8
  %40 = call noalias ptr @g_malloc(i64 noundef %39) #12
  store ptr %40, ptr %13, align 8
  br label %62

41:                                               ; preds = %35
  %42 = load i64, ptr %11, align 8
  %43 = call i1 @llvm.is.constant.i64(i64 %42)
  br i1 %43, label %44, label %57

44:                                               ; preds = %41
  %45 = load i64, ptr %12, align 8
  %46 = icmp eq i64 %45, 0
  br i1 %46, label %52, label %47

47:                                               ; preds = %44
  %48 = load i64, ptr %11, align 8
  %49 = load i64, ptr %12, align 8
  %50 = udiv i64 -1, %49
  %51 = icmp ule i64 %48, %50
  br i1 %51, label %52, label %57

52:                                               ; preds = %47, %44
  %53 = load i64, ptr %11, align 8
  %54 = load i64, ptr %12, align 8
  %55 = mul i64 %53, %54
  %56 = call noalias ptr @g_malloc(i64 noundef %55) #12
  store ptr %56, ptr %13, align 8
  br label %61

57:                                               ; preds = %47, %41
  %58 = load i64, ptr %11, align 8
  %59 = load i64, ptr %12, align 8
  %60 = call noalias ptr @g_malloc_n(i64 noundef %58, i64 noundef %59) #13
  store ptr %60, ptr %13, align 8
  br label %61

61:                                               ; preds = %57, %52
  br label %62

62:                                               ; preds = %61, %38
  %63 = load ptr, ptr %13, align 8
  store ptr %63, ptr %14, align 8
  call void @llvm.lifetime.end.p0(i64 8, ptr %13) #10
  call void @llvm.lifetime.end.p0(i64 8, ptr %12) #10
  call void @llvm.lifetime.end.p0(i64 8, ptr %11) #10
  %64 = load ptr, ptr %14, align 8
  store ptr %64, ptr %5, align 8
  %65 = call ptr @g_hash_table_new(ptr noundef @g_direct_hash, ptr noundef @g_direct_equal)
  %66 = load ptr, ptr %5, align 8
  %67 = getelementptr inbounds nuw %struct._wsp_stats_t, ptr %66, i32 0, i32 3
  store ptr %65, ptr %67, align 8
  %68 = load ptr, ptr getelementptr inbounds nuw (%struct._value_string_ext, ptr @wsp_vals_status_ext, i32 0, i32 3), align 8
  store ptr %68, ptr %10, align 8
  store i32 0, ptr %7, align 4
  br label %69

69:                                               ; preds = %159, %62
  %70 = load ptr, ptr %10, align 8
  %71 = load i32, ptr %7, align 4
  %72 = zext i32 %71 to i64
  %73 = getelementptr %struct._value_string, ptr %70, i64 %72
  %74 = getelementptr inbounds nuw %struct._value_string, ptr %73, i32 0, i32 1
  %75 = load ptr, ptr %74, align 8
  %76 = icmp ne ptr %75, null
  br i1 %76, label %77, label %162

77:                                               ; preds = %69
  call void @llvm.lifetime.start.p0(i64 8, ptr %15) #10
  call void @llvm.lifetime.start.p0(i64 8, ptr %16) #10
  store i64 1, ptr %16, align 8
  call void @llvm.lifetime.start.p0(i64 8, ptr %17) #10
  store i64 16, ptr %17, align 8
  call void @llvm.lifetime.start.p0(i64 8, ptr %18) #10
  %78 = load i64, ptr %17, align 8
  %79 = icmp eq i64 %78, 1
  br i1 %79, label %80, label %83

80:                                               ; preds = %77
  %81 = load i64, ptr %16, align 8
  %82 = call noalias ptr @g_malloc(i64 noundef %81) #12
  store ptr %82, ptr %18, align 8
  br label %104

83:                                               ; preds = %77
  %84 = load i64, ptr %16, align 8
  %85 = call i1 @llvm.is.constant.i64(i64 %84)
  br i1 %85, label %86, label %99

86:                                               ; preds = %83
  %87 = load i64, ptr %17, align 8
  %88 = icmp eq i64 %87, 0
  br i1 %88, label %94, label %89

89:                                               ; preds = %86
  %90 = load i64, ptr %16, align 8
  %91 = load i64, ptr %17, align 8
  %92 = udiv i64 -1, %91
  %93 = icmp ule i64 %90, %92
  br i1 %93, label %94, label %99

94:                                               ; preds = %89, %86
  %95 = load i64, ptr %16, align 8
  %96 = load i64, ptr %17, align 8
  %97 = mul i64 %95, %96
  %98 = call noalias ptr @g_malloc(i64 noundef %97) #12
  store ptr %98, ptr %18, align 8
  br label %103

99:                                               ; preds = %89, %83
  %100 = load i64, ptr %16, align 8
  %101 = load i64, ptr %17, align 8
  %102 = call noalias ptr @g_malloc_n(i64 noundef %100, i64 noundef %101) #13
  store ptr %102, ptr %18, align 8
  br label %103

103:                                              ; preds = %99, %94
  br label %104

104:                                              ; preds = %103, %80
  %105 = load ptr, ptr %18, align 8
  store ptr %105, ptr %19, align 8
  call void @llvm.lifetime.end.p0(i64 8, ptr %18) #10
  call void @llvm.lifetime.end.p0(i64 8, ptr %17) #10
  call void @llvm.lifetime.end.p0(i64 8, ptr %16) #10
  %106 = load ptr, ptr %19, align 8
  store ptr %106, ptr %9, align 8
  call void @llvm.lifetime.start.p0(i64 8, ptr %20) #10
  store i64 1, ptr %20, align 8
  call void @llvm.lifetime.start.p0(i64 8, ptr %21) #10
  store i64 4, ptr %21, align 8
  call void @llvm.lifetime.start.p0(i64 8, ptr %22) #10
  %107 = load i64, ptr %21, align 8
  %108 = icmp eq i64 %107, 1
  br i1 %108, label %109, label %112

109:                                              ; preds = %104
  %110 = load i64, ptr %20, align 8
  %111 = call noalias ptr @g_malloc(i64 noundef %110) #12
  store ptr %111, ptr %22, align 8
  br label %133

112:                                              ; preds = %104
  %113 = load i64, ptr %20, align 8
  %114 = call i1 @llvm.is.constant.i64(i64 %113)
  br i1 %114, label %115, label %128

115:                                              ; preds = %112
  %116 = load i64, ptr %21, align 8
  %117 = icmp eq i64 %116, 0
  br i1 %117, label %123, label %118

118:                                              ; preds = %115
  %119 = load i64, ptr %20, align 8
  %120 = load i64, ptr %21, align 8
  %121 = udiv i64 -1, %120
  %122 = icmp ule i64 %119, %121
  br i1 %122, label %123, label %128

123:                                              ; preds = %118, %115
  %124 = load i64, ptr %20, align 8
  %125 = load i64, ptr %21, align 8
  %126 = mul i64 %124, %125
  %127 = call noalias ptr @g_malloc(i64 noundef %126) #12
  store ptr %127, ptr %22, align 8
  br label %132

128:                                              ; preds = %118, %112
  %129 = load i64, ptr %20, align 8
  %130 = load i64, ptr %21, align 8
  %131 = call noalias ptr @g_malloc_n(i64 noundef %129, i64 noundef %130) #13
  store ptr %131, ptr %22, align 8
  br label %132

132:                                              ; preds = %128, %123
  br label %133

133:                                              ; preds = %132, %109
  %134 = load ptr, ptr %22, align 8
  store ptr %134, ptr %23, align 8
  call void @llvm.lifetime.end.p0(i64 8, ptr %22) #10
  call void @llvm.lifetime.end.p0(i64 8, ptr %21) #10
  call void @llvm.lifetime.end.p0(i64 8, ptr %20) #10
  %135 = load ptr, ptr %23, align 8
  store ptr %135, ptr %15, align 8
  %136 = load ptr, ptr %9, align 8
  %137 = getelementptr inbounds nuw %struct._wsp_status_code_t, ptr %136, i32 0, i32 1
  store i32 0, ptr %137, align 8
  %138 = load ptr, ptr %10, align 8
  %139 = load i32, ptr %7, align 4
  %140 = zext i32 %139 to i64
  %141 = getelementptr %struct._value_string, ptr %138, i64 %140
  %142 = getelementptr inbounds nuw %struct._value_string, ptr %141, i32 0, i32 1
  %143 = load ptr, ptr %142, align 8
  %144 = load ptr, ptr %9, align 8
  %145 = getelementptr inbounds nuw %struct._wsp_status_code_t, ptr %144, i32 0, i32 0
  store ptr %143, ptr %145, align 8
  %146 = load ptr, ptr %10, align 8
  %147 = load i32, ptr %7, align 4
  %148 = zext i32 %147 to i64
  %149 = getelementptr %struct._value_string, ptr %146, i64 %148
  %150 = getelementptr inbounds nuw %struct._value_string, ptr %149, i32 0, i32 0
  %151 = load i32, ptr %150, align 8
  %152 = load ptr, ptr %15, align 8
  store i32 %151, ptr %152, align 4
  %153 = load ptr, ptr %5, align 8
  %154 = getelementptr inbounds nuw %struct._wsp_stats_t, ptr %153, i32 0, i32 3
  %155 = load ptr, ptr %154, align 8
  %156 = load ptr, ptr %15, align 8
  %157 = load ptr, ptr %9, align 8
  %158 = call i32 @g_hash_table_insert(ptr noundef %155, ptr noundef %156, ptr noundef %157)
  call void @llvm.lifetime.end.p0(i64 8, ptr %15) #10
  br label %159

159:                                              ; preds = %133
  %160 = load i32, ptr %7, align 4
  %161 = add i32 %160, 1
  store i32 %161, ptr %7, align 4
  br label %69, !llvm.loop !7

162:                                              ; preds = %69
  %163 = load ptr, ptr %5, align 8
  %164 = getelementptr inbounds nuw %struct._wsp_stats_t, ptr %163, i32 0, i32 2
  store i32 16, ptr %164, align 8
  call void @llvm.lifetime.start.p0(i64 8, ptr %24) #10
  %165 = load ptr, ptr %5, align 8
  %166 = getelementptr inbounds nuw %struct._wsp_stats_t, ptr %165, i32 0, i32 2
  %167 = load i32, ptr %166, align 8
  %168 = add i32 %167, 1
  %169 = zext i32 %168 to i64
  store i64 %169, ptr %24, align 8
  call void @llvm.lifetime.start.p0(i64 8, ptr %25) #10
  store i64 16, ptr %25, align 8
  call void @llvm.lifetime.start.p0(i64 8, ptr %26) #10
  %170 = load i64, ptr %25, align 8
  %171 = icmp eq i64 %170, 1
  br i1 %171, label %172, label %175

172:                                              ; preds = %162
  %173 = load i64, ptr %24, align 8
  %174 = call noalias ptr @g_malloc(i64 noundef %173) #12
  store ptr %174, ptr %26, align 8
  br label %196

175:                                              ; preds = %162
  %176 = load i64, ptr %24, align 8
  %177 = call i1 @llvm.is.constant.i64(i64 %176)
  br i1 %177, label %178, label %191

178:                                              ; preds = %175
  %179 = load i64, ptr %25, align 8
  %180 = icmp eq i64 %179, 0
  br i1 %180, label %186, label %181

181:                                              ; preds = %178
  %182 = load i64, ptr %24, align 8
  %183 = load i64, ptr %25, align 8
  %184 = udiv i64 -1, %183
  %185 = icmp ule i64 %182, %184
  br i1 %185, label %186, label %191

186:                                              ; preds = %181, %178
  %187 = load i64, ptr %24, align 8
  %188 = load i64, ptr %25, align 8
  %189 = mul i64 %187, %188
  %190 = call noalias ptr @g_malloc(i64 noundef %189) #12
  store ptr %190, ptr %26, align 8
  br label %195

191:                                              ; preds = %181, %175
  %192 = load i64, ptr %24, align 8
  %193 = load i64, ptr %25, align 8
  %194 = call noalias ptr @g_malloc_n(i64 noundef %192, i64 noundef %193) #13
  store ptr %194, ptr %26, align 8
  br label %195

195:                                              ; preds = %191, %186
  br label %196

196:                                              ; preds = %195, %172
  %197 = load ptr, ptr %26, align 8
  store ptr %197, ptr %27, align 8
  call void @llvm.lifetime.end.p0(i64 8, ptr %26) #10
  call void @llvm.lifetime.end.p0(i64 8, ptr %25) #10
  call void @llvm.lifetime.end.p0(i64 8, ptr %24) #10
  %198 = load ptr, ptr %27, align 8
  %199 = load ptr, ptr %5, align 8
  %200 = getelementptr inbounds nuw %struct._wsp_stats_t, ptr %199, i32 0, i32 1
  store ptr %198, ptr %200, align 8
  %201 = load ptr, ptr %6, align 8
  %202 = call noalias ptr @g_strdup(ptr noundef %201)
  %203 = load ptr, ptr %5, align 8
  %204 = getelementptr inbounds nuw %struct._wsp_stats_t, ptr %203, i32 0, i32 0
  store ptr %202, ptr %204, align 8
  store i32 0, ptr %7, align 4
  br label %205

205:                                              ; preds = %229, %196
  %206 = load i32, ptr %7, align 4
  %207 = load ptr, ptr %5, align 8
  %208 = getelementptr inbounds nuw %struct._wsp_stats_t, ptr %207, i32 0, i32 2
  %209 = load i32, ptr %208, align 8
  %210 = icmp ult i32 %206, %209
  br i1 %210, label %211, label %232

211:                                              ; preds = %205
  %212 = load ptr, ptr %5, align 8
  %213 = getelementptr inbounds nuw %struct._wsp_stats_t, ptr %212, i32 0, i32 1
  %214 = load ptr, ptr %213, align 8
  %215 = load i32, ptr %7, align 4
  %216 = zext i32 %215 to i64
  %217 = getelementptr %struct._wsp_pdu_t, ptr %214, i64 %216
  %218 = getelementptr inbounds nuw %struct._wsp_pdu_t, ptr %217, i32 0, i32 1
  store i32 0, ptr %218, align 8
  %219 = load i32, ptr %7, align 4
  %220 = call i32 @index2pdut(i32 noundef %219)
  %221 = call ptr @try_val_to_str_ext(i32 noundef %220, ptr noundef @wsp_vals_pdu_type_ext)
  %222 = load ptr, ptr %5, align 8
  %223 = getelementptr inbounds nuw %struct._wsp_stats_t, ptr %222, i32 0, i32 1
  %224 = load ptr, ptr %223, align 8
  %225 = load i32, ptr %7, align 4
  %226 = zext i32 %225 to i64
  %227 = getelementptr %struct._wsp_pdu_t, ptr %224, i64 %226
  %228 = getelementptr inbounds nuw %struct._wsp_pdu_t, ptr %227, i32 0, i32 0
  store ptr %221, ptr %228, align 8
  br label %229

229:                                              ; preds = %211
  %230 = load i32, ptr %7, align 4
  %231 = add i32 %230, 1
  store i32 %231, ptr %7, align 4
  br label %205, !llvm.loop !9

232:                                              ; preds = %205
  %233 = load ptr, ptr %5, align 8
  %234 = load ptr, ptr %6, align 8
  %235 = call ptr @register_tap_listener(ptr noundef @.str.3, ptr noundef %233, ptr noundef %234, i32 noundef 0, ptr noundef @wspstat_reset, ptr noundef @wspstat_packet, ptr noundef @wspstat_draw, ptr noundef null)
  store ptr %235, ptr %8, align 8
  %236 = load ptr, ptr %8, align 8
  %237 = icmp ne ptr %236, null
  br i1 %237, label %238, label %257

238:                                              ; preds = %232
  %239 = load ptr, ptr %5, align 8
  %240 = getelementptr inbounds nuw %struct._wsp_stats_t, ptr %239, i32 0, i32 1
  %241 = load ptr, ptr %240, align 8
  call void @g_free(ptr noundef %241)
  %242 = load ptr, ptr %5, align 8
  %243 = getelementptr inbounds nuw %struct._wsp_stats_t, ptr %242, i32 0, i32 0
  %244 = load ptr, ptr %243, align 8
  call void @g_free(ptr noundef %244)
  %245 = load ptr, ptr %5, align 8
  %246 = getelementptr inbounds nuw %struct._wsp_stats_t, ptr %245, i32 0, i32 3
  %247 = load ptr, ptr %246, align 8
  call void @g_hash_table_foreach(ptr noundef %247, ptr noundef @wsp_free_hash_table, ptr noundef null)
  %248 = load ptr, ptr %5, align 8
  %249 = getelementptr inbounds nuw %struct._wsp_stats_t, ptr %248, i32 0, i32 3
  %250 = load ptr, ptr %249, align 8
  call void @g_hash_table_destroy(ptr noundef %250)
  %251 = load ptr, ptr %5, align 8
  call void @g_free(ptr noundef %251)
  %252 = load ptr, ptr %8, align 8
  %253 = getelementptr inbounds nuw %struct._GString, ptr %252, i32 0, i32 0
  %254 = load ptr, ptr %253, align 8
  call void (ptr, ...) @cmdarg_err(ptr noundef @.str.4, ptr noundef %254)
  %255 = load ptr, ptr %8, align 8
  %256 = call ptr @g_string_free(ptr noundef %255, i32 noundef 1)
  call void @exit(i32 noundef 1) #14
  unreachable

257:                                              ; preds = %232
  call void @llvm.lifetime.end.p0(i64 8, ptr %10) #10
  call void @llvm.lifetime.end.p0(i64 8, ptr %9) #10
  call void @llvm.lifetime.end.p0(i64 8, ptr %8) #10
  call void @llvm.lifetime.end.p0(i64 4, ptr %7) #10
  call void @llvm.lifetime.end.p0(i64 8, ptr %6) #10
  call void @llvm.lifetime.end.p0(i64 8, ptr %5) #10
  ret void
}