; Function Attrs: null_pointer_is_valid sspstrong uwtable
define internal void @wspstat_init(ptr noundef %0, ptr readnone captures(none) %1) #0 {
  %3 = tail call i32 @strncmp(ptr noundef %0, ptr noundef nonnull dereferenceable(10) @.str.2, i64 noundef 9) #7
  %.not = icmp eq i32 %3, 0
  %4 = getelementptr i8, ptr %0, i64 9
  %.0 = select i1 %.not, ptr %4, ptr null
  %5 = tail call noalias dereferenceable_or_null(32) ptr @g_malloc(i64 noundef 32) #8
  %6 = tail call ptr @g_hash_table_new(ptr noundef nonnull @g_direct_hash, ptr noundef nonnull @g_direct_equal)
  %7 = getelementptr inbounds nuw i8, ptr %5, i64 24
  store ptr %6, ptr %7, align 8
  %8 = load ptr, ptr getelementptr inbounds nuw (i8, ptr @wsp_vals_status_ext, i64 16), align 8
  %9 = getelementptr inbounds nuw i8, ptr %8, i64 8
  %10 = load ptr, ptr %9, align 8
  %.not9294 = icmp eq ptr %10, null
  br i1 %.not9294, label %._crit_edge, label %.lr.ph

.lr.ph:                                           ; preds = %2, %.lr.ph
  %11 = phi ptr [ %22, %.lr.ph ], [ %9, %2 ]
  %12 = phi ptr [ %21, %.lr.ph ], [ %8, %2 ]
  %.08795 = phi i32 [ %19, %.lr.ph ], [ 0, %2 ]
  %13 = tail call noalias dereferenceable_or_null(16) ptr @g_malloc(i64 noundef 16) #8
  %14 = tail call noalias dereferenceable_or_null(4) ptr @g_malloc(i64 noundef 4) #8
  %15 = getelementptr inbounds nuw i8, ptr %13, i64 8
  store i32 0, ptr %15, align 8
  %16 = load ptr, ptr %11, align 8
  store ptr %16, ptr %13, align 8
  %17 = load i32, ptr %12, align 8
  store i32 %17, ptr %14, align 4
  %18 = tail call i32 @g_hash_table_insert(ptr noundef %6, ptr noundef %14, ptr noundef %13)
  %19 = add i32 %.08795, 1
  %20 = zext i32 %19 to i64
  %21 = getelementptr %struct._value_string, ptr %8, i64 %20
  %22 = getelementptr inbounds nuw i8, ptr %21, i64 8
  %23 = load ptr, ptr %22, align 8
  %.not92 = icmp eq ptr %23, null
  br i1 %.not92, label %._crit_edge, label %.lr.ph, !llvm.loop !7

._crit_edge:                                      ; preds = %.lr.ph, %2
  %24 = getelementptr inbounds nuw i8, ptr %5, i64 16
  store i32 16, ptr %24, align 8
  %25 = tail call noalias dereferenceable_or_null(272) ptr @g_malloc(i64 noundef 272) #8
  %26 = getelementptr inbounds nuw i8, ptr %5, i64 8
  store ptr %25, ptr %26, align 8
  %27 = tail call noalias ptr @g_strdup(ptr noundef %.0)
  store ptr %27, ptr %5, align 8
  %28 = load i32, ptr %24, align 8
  %.not100 = icmp eq i32 %28, 0
  br i1 %.not100, label %._crit_edge99, label %.lr.ph98.preheader

.lr.ph98.preheader:                               ; preds = %._crit_edge
  %.pre = load ptr, ptr %26, align 8
  %29 = zext i32 %28 to i64
  br label %.lr.ph98

.lr.ph98:                                         ; preds = %.lr.ph98.preheader, %index2pdut.exit
  %indvars.iv = phi i64 [ 0, %.lr.ph98.preheader ], [ %indvars.iv.next, %index2pdut.exit ]
  %indvars101 = trunc i64 %indvars.iv to i32
  %30 = getelementptr %struct._wsp_pdu_t, ptr %.pre, i64 %indvars.iv, i32 1
  store i32 0, ptr %30, align 8
  %31 = icmp slt i32 %indvars101, 10
  br i1 %31, label %index2pdut.exit, label %32

32:                                               ; preds = %.lr.ph98
  %33 = icmp samesign ult i64 %indvars.iv, 15
  br i1 %33, label %34, label %36

34:                                               ; preds = %32
  %35 = add nuw nsw i32 %indvars101, 54
  br label %index2pdut.exit

36:                                               ; preds = %32
  %37 = icmp samesign ult i64 %indvars.iv, 17
  %38 = trunc i64 %indvars.iv to i32
  %39 = add nuw i32 %38, 81
  %spec.select.i = select i1 %37, i32 %39, i32 0
  br label %index2pdut.exit

index2pdut.exit:                                  ; preds = %.lr.ph98, %34, %36
  %.0.i = phi i32 [ %35, %34 ], [ %indvars101, %.lr.ph98 ], [ %spec.select.i, %36 ]
  %40 = tail call ptr @try_val_to_str_ext(i32 noundef %.0.i, ptr noundef nonnull @wsp_vals_pdu_type_ext)
  %41 = getelementptr %struct._wsp_pdu_t, ptr %.pre, i64 %indvars.iv
  store ptr %40, ptr %41, align 8
  %indvars.iv.next = add nuw nsw i64 %indvars.iv, 1
  %42 = icmp samesign ult i64 %indvars.iv.next, %29
  br i1 %42, label %.lr.ph98, label %._crit_edge99, !llvm.loop !9

._crit_edge99:                                    ; preds = %index2pdut.exit, %._crit_edge
  %43 = tail call ptr @register_tap_listener(ptr noundef nonnull @.str.3, ptr noundef %5, ptr noundef %.0, i32 noundef 0, ptr noundef nonnull @wspstat_reset, ptr noundef nonnull @wspstat_packet, ptr noundef nonnull @wspstat_draw, ptr noundef null)
  %.not93 = icmp eq ptr %43, null
  br i1 %.not93, label %51, label %44

44:                                               ; preds = %._crit_edge99
  %45 = load ptr, ptr %26, align 8
  tail call void @g_free(ptr noundef %45)
  %46 = load ptr, ptr %5, align 8
  tail call void @g_free(ptr noundef %46)
  %47 = load ptr, ptr %7, align 8
  tail call void @g_hash_table_foreach(ptr noundef %47, ptr noundef nonnull @wsp_free_hash_table, ptr noundef null)
  %48 = load ptr, ptr %7, align 8
  tail call void @g_hash_table_destroy(ptr noundef %48)
  tail call void @g_free(ptr noundef %5)
  %49 = load ptr, ptr %43, align 8
  tail call void (ptr, ...) @cmdarg_err(ptr noundef nonnull @.str.4, ptr noundef %49)
  %50 = tail call ptr @g_string_free(ptr noundef nonnull %43, i32 noundef 1)
  tail call void @exit(i32 noundef 1) #9
  unreachable

51:                                               ; preds = %._crit_edge99
  ret void
}